; ModuleID = '46/886.c'
source_filename = "46/886.c"
target datalayout = "e-m:e-p270:32:32-p271:32:32-p272:64:64-i64:64-f80:128-n8:16:32:64-S128"
target triple = "x86_64-pc-linux-gnu"

@.str = private unnamed_addr constant [5 x i8] c"%d%d\00", align 1
@.str.1 = private unnamed_addr constant [3 x i8] c"%d\00", align 1
@.str.2 = private unnamed_addr constant [4 x i8] c"%d\0A\00", align 1

; Function Attrs: noinline nounwind uwtable
define dso_local i32 @main() #0 {
  %1 = alloca i32, align 4
  %2 = alloca i32, align 4
  %3 = alloca i32, align 4
  %4 = alloca i32, align 4
  %5 = alloca i32, align 4
  %6 = alloca [100 x [100 x i32]], align 16
  %7 = alloca i32, align 4
  %8 = alloca i32, align 4
  %9 = alloca i32, align 4
  %10 = alloca i32, align 4
  store i32 0, i32* %1, align 4
  %11 = call i32 (i8*, ...) @__isoc99_scanf(i8* getelementptr inbounds ([5 x i8], [5 x i8]* @.str, i64 0, i64 0), i32* %2, i32* %3)
  store i32 0, i32* %4, align 4
  br label %12

12:                                               ; preds = %33, %0
  %13 = load i32, i32* %4, align 4
  %14 = load i32, i32* %2, align 4
  %15 = icmp slt i32 %13, %14
  br i1 %15, label %16, label %36

16:                                               ; preds = %12
  store i32 0, i32* %5, align 4
  br label %17

17:                                               ; preds = %29, %16
  %18 = load i32, i32* %5, align 4
  %19 = load i32, i32* %3, align 4
  %20 = icmp slt i32 %18, %19
  br i1 %20, label %21, label %32

21:                                               ; preds = %17
  %22 = load i32, i32* %4, align 4
  %23 = sext i32 %22 to i64
  %24 = getelementptr inbounds [100 x [100 x i32]], [100 x [100 x i32]]* %6, i64 0, i64 %23
  %25 = load i32, i32* %5, align 4
  %26 = sext i32 %25 to i64
  %27 = getelementptr inbounds [100 x i32], [100 x i32]* %24, i64 0, i64 %26
  %28 = call i32 (i8*, ...) @__isoc99_scanf(i8* getelementptr inbounds ([3 x i8], [3 x i8]* @.str.1, i64 0, i64 0), i32* %27)
  br label %29

29:                                               ; preds = %21
  %30 = load i32, i32* %5, align 4
  %31 = add nsw i32 %30, 1
  store i32 %31, i32* %5, align 4
  br label %17

32:                                               ; preds = %17
  br label %33

33:                                               ; preds = %32
  %34 = load i32, i32* %4, align 4
  %35 = add nsw i32 %34, 1
  store i32 %35, i32* %4, align 4
  br label %12

36:                                               ; preds = %12
  store i32 0, i32* %7, align 4
  %37 = load i32, i32* %2, align 4
  %38 = sub nsw i32 %37, 1
  store i32 %38, i32* %8, align 4
  store i32 0, i32* %9, align 4
  %39 = load i32, i32* %3, align 4
  %40 = sub nsw i32 %39, 1
  store i32 %40, i32* %10, align 4
  br label %41

41:                                               ; preds = %182, %36
  br i1 true, label %42, label %191

42:                                               ; preds = %41
  %43 = load i32, i32* %7, align 4
  %44 = load i32, i32* %8, align 4
  %45 = icmp eq i32 %43, %44
  br i1 %45, label %46, label %69

46:                                               ; preds = %42
  %47 = load i32, i32* %9, align 4
  %48 = load i32, i32* %10, align 4
  %49 = icmp sle i32 %47, %48
  br i1 %49, label %50, label %69

50:                                               ; preds = %46
  %51 = load i32, i32* %9, align 4
  store i32 %51, i32* %4, align 4
  br label %52

52:                                               ; preds = %65, %50
  %53 = load i32, i32* %4, align 4
  %54 = load i32, i32* %10, align 4
  %55 = icmp sle i32 %53, %54
  br i1 %55, label %56, label %68

56:                                               ; preds = %52
  %57 = load i32, i32* %7, align 4
  %58 = sext i32 %57 to i64
  %59 = getelementptr inbounds [100 x [100 x i32]], [100 x [100 x i32]]* %6, i64 0, i64 %58
  %60 = load i32, i32* %4, align 4
  %61 = sext i32 %60 to i64
  %62 = getelementptr inbounds [100 x i32], [100 x i32]* %59, i64 0, i64 %61
  %63 = load i32, i32* %62, align 4
  %64 = call i32 (i8*, ...) @printf(i8* getelementptr inbounds ([4 x i8], [4 x i8]* @.str.2, i64 0, i64 0), i32 %63)
  br label %65

65:                                               ; preds = %56
  %66 = load i32, i32* %4, align 4
  %67 = add nsw i32 %66, 1
  store i32 %67, i32* %4, align 4
  br label %52

68:                                               ; preds = %52
  br label %191

69:                                               ; preds = %46, %42
  %70 = load i32, i32* %9, align 4
  %71 = load i32, i32* %10, align 4
  %72 = icmp eq i32 %70, %71
  br i1 %72, label %73, label %96

73:                                               ; preds = %69
  %74 = load i32, i32* %7, align 4
  %75 = load i32, i32* %8, align 4
  %76 = icmp slt i32 %74, %75
  br i1 %76, label %77, label %96

77:                                               ; preds = %73
  %78 = load i32, i32* %7, align 4
  store i32 %78, i32* %4, align 4
  br label %79

79:                                               ; preds = %92, %77
  %80 = load i32, i32* %4, align 4
  %81 = load i32, i32* %8, align 4
  %82 = icmp sle i32 %80, %81
  br i1 %82, label %83, label %95

83:                                               ; preds = %79
  %84 = load i32, i32* %4, align 4
  %85 = sext i32 %84 to i64
  %86 = getelementptr inbounds [100 x [100 x i32]], [100 x [100 x i32]]* %6, i64 0, i64 %85
  %87 = load i32, i32* %9, align 4
  %88 = sext i32 %87 to i64
  %89 = getelementptr inbounds [100 x i32], [100 x i32]* %86, i64 0, i64 %88
  %90 = load i32, i32* %89, align 4
  %91 = call i32 (i8*, ...) @printf(i8* getelementptr inbounds ([4 x i8], [4 x i8]* @.str.2, i64 0, i64 0), i32 %90)
  br label %92

92:                                               ; preds = %83
  %93 = load i32, i32* %4, align 4
  %94 = add nsw i32 %93, 1
  store i32 %94, i32* %4, align 4
  br label %79

95:                                               ; preds = %79
  br label %191

96:                                               ; preds = %73, %69
  br label %97

97:                                               ; preds = %96
  %98 = load i32, i32* %9, align 4
  %99 = load i32, i32* %10, align 4
  %100 = icmp sgt i32 %98, %99
  br i1 %100, label %105, label %101

101:                                              ; preds = %97
  %102 = load i32, i32* %7, align 4
  %103 = load i32, i32* %8, align 4
  %104 = icmp sgt i32 %102, %103
  br i1 %104, label %105, label %106

105:                                              ; preds = %101, %97
  br label %191

106:                                              ; preds = %101
  %107 = load i32, i32* %9, align 4
  store i32 %107, i32* %4, align 4
  br label %108

108:                                              ; preds = %122, %106
  %109 = load i32, i32* %4, align 4
  %110 = load i32, i32* %10, align 4
  %111 = sub nsw i32 %110, 1
  %112 = icmp sle i32 %109, %111
  br i1 %112, label %113, label %125

113:                                              ; preds = %108
  %114 = load i32, i32* %7, align 4
  %115 = sext i32 %114 to i64
  %116 = getelementptr inbounds [100 x [100 x i32]], [100 x [100 x i32]]* %6, i64 0, i64 %115
  %117 = load i32, i32* %4, align 4
  %118 = sext i32 %117 to i64
  %119 = getelementptr inbounds [100 x i32], [100 x i32]* %116, i64 0, i64 %118
  %120 = load i32, i32* %119, align 4
  %121 = call i32 (i8*, ...) @printf(i8* getelementptr inbounds ([4 x i8], [4 x i8]* @.str.2, i64 0, i64 0), i32 %120)
  br label %122

122:                                              ; preds = %113
  %123 = load i32, i32* %4, align 4
  %124 = add nsw i32 %123, 1
  store i32 %124, i32* %4, align 4
  br label %108

125:                                              ; preds = %108
  %126 = load i32, i32* %7, align 4
  store i32 %126, i32* %4, align 4
  br label %127

127:                                              ; preds = %141, %125
  %128 = load i32, i32* %4, align 4
  %129 = load i32, i32* %8, align 4
  %130 = sub nsw i32 %129, 1
  %131 = icmp sle i32 %128, %130
  br i1 %131, label %132, label %144

132:                                              ; preds = %127
  %133 = load i32, i32* %4, align 4
  %134 = sext i32 %133 to i64
  %135 = getelementptr inbounds [100 x [100 x i32]], [100 x [100 x i32]]* %6, i64 0, i64 %134
  %136 = load i32, i32* %10, align 4
  %137 = sext i32 %136 to i64
  %138 = getelementptr inbounds [100 x i32], [100 x i32]* %135, i64 0, i64 %137
  %139 = load i32, i32* %138, align 4
  %140 = call i32 (i8*, ...) @printf(i8* getelementptr inbounds ([4 x i8], [4 x i8]* @.str.2, i64 0, i64 0), i32 %139)
  br label %141

141:                                              ; preds = %132
  %142 = load i32, i32* %4, align 4
  %143 = add nsw i32 %142, 1
  store i32 %143, i32* %4, align 4
  br label %127

144:                                              ; preds = %127
  %145 = load i32, i32* %10, align 4
  store i32 %145, i32* %4, align 4
  br label %146

146:                                              ; preds = %160, %144
  %147 = load i32, i32* %4, align 4
  %148 = load i32, i32* %9, align 4
  %149 = add nsw i32 %148, 1
  %150 = icmp sge i32 %147, %149
  br i1 %150, label %151, label %163

151:                                              ; preds = %146
  %152 = load i32, i32* %8, align 4
  %153 = sext i32 %152 to i64
  %154 = getelementptr inbounds [100 x [100 x i32]], [100 x [100 x i32]]* %6, i64 0, i64 %153
  %155 = load i32, i32* %4, align 4
  %156 = sext i32 %155 to i64
  %157 = getelementptr inbounds [100 x i32], [100 x i32]* %154, i64 0, i64 %156
  %158 = load i32, i32* %157, align 4
  %159 = call i32 (i8*, ...) @printf(i8* getelementptr inbounds ([4 x i8], [4 x i8]* @.str.2, i64 0, i64 0), i32 %158)
  br label %160

160:                                              ; preds = %151
  %161 = load i32, i32* %4, align 4
  %162 = add nsw i32 %161, -1
  store i32 %162, i32* %4, align 4
  br label %146

163:                                              ; preds = %146
  %164 = load i32, i32* %8, align 4
  store i32 %164, i32* %4, align 4
  br label %165

165:                                              ; preds = %179, %163
  %166 = load i32, i32* %4, align 4
  %167 = load i32, i32* %7, align 4
  %168 = add nsw i32 %167, 1
  %169 = icmp sge i32 %166, %168
  br i1 %169, label %170, label %182

170:                                              ; preds = %165
  %171 = load i32, i32* %4, align 4
  %172 = sext i32 %171 to i64
  %173 = getelementptr inbounds [100 x [100 x i32]], [100 x [100 x i32]]* %6, i64 0, i64 %172
  %174 = load i32, i32* %9, align 4
  %175 = sext i32 %174 to i64
  %176 = getelementptr inbounds [100 x i32], [100 x i32]* %173, i64 0, i64 %175
  %177 = load i32, i32* %176, align 4
  %178 = call i32 (i8*, ...) @printf(i8* getelementptr inbounds ([4 x i8], [4 x i8]* @.str.2, i64 0, i64 0), i32 %177)
  br label %179

179:                                              ; preds = %170
  %180 = load i32, i32* %4, align 4
  %181 = add nsw i32 %180, -1
  store i32 %181, i32* %4, align 4
  br label %165

182:                                              ; preds = %165
  %183 = load i32, i32* %7, align 4
  %184 = add nsw i32 %183, 1
  store i32 %184, i32* %7, align 4
  %185 = load i32, i32* %9, align 4
  %186 = add nsw i32 %185, 1
  store i32 %186, i32* %9, align 4
  %187 = load i32, i32* %8, align 4
  %188 = add nsw i32 %187, -1
  store i32 %188, i32* %8, align 4
  %189 = load i32, i32* %10, align 4
  %190 = add nsw i32 %189, -1
  store i32 %190, i32* %10, align 4
  br label %41

191:                                              ; preds = %105, %95, %68, %41
  ret i32 0
}

declare dso_local i32 @__isoc99_scanf(i8*, ...) #1

declare dso_local i32 @printf(i8*, ...) #1


!llvm.module.flags = !{!0}
!llvm.ident = !{!1}

!0 = !{i32 1, !"wchar_size", i32 4}
!1 = !{!"clang version 10.0.0-4ubuntu1 "}
